target datalayout = "e-m:e-p270:32:32-p271:32:32-p272:64:64-i64:64-i128:128-f80:128-n8:16:32:64-S128"
target triple = "x86_64-pc-linux-gnu"

%struct.RBTree = type { ptr, i64, ptr, ptr, ptr, ptr, ptr }

@sentinel = internal global { i8, [7 x i8], ptr, ptr, ptr } { i8 0, [7 x i8] zeroinitializer, ptr @sentinel, ptr @sentinel, ptr null }, align 8

; Function Attrs: nounwind uwtable
define dso_local ptr @rbt_create(i64 noundef %0, ptr noundef %1, ptr noundef %2, ptr noundef %3, ptr noundef %4, ptr noundef %5) #0 {
  %7 = alloca i64, align 8
  %8 = alloca ptr, align 8
  %9 = alloca ptr, align 8
  %10 = alloca ptr, align 8
  %11 = alloca ptr, align 8
  %12 = alloca ptr, align 8
  %13 = alloca ptr, align 8
  store i64 %0, ptr %7, align 8
  store ptr %1, ptr %8, align 8
  store ptr %2, ptr %9, align 8
  store ptr %3, ptr %10, align 8
  store ptr %4, ptr %11, align 8
  store ptr %5, ptr %12, align 8
  call void @llvm.lifetime.start.p0(i64 8, ptr %13) #6
  %14 = call ptr @palloc(i64 noundef 56)
  store ptr %14, ptr %13, align 8
  %15 = load ptr, ptr %13, align 8
  %16 = getelementptr inbounds nuw %struct.RBTree, ptr %15, i32 0, i32 0
  store ptr @sentinel, ptr %16, align 8
  %17 = load i64, ptr %7, align 8
  %18 = load ptr, ptr %13, align 8
  %19 = getelementptr inbounds nuw %struct.RBTree, ptr %18, i32 0, i32 1
  store i64 %17, ptr %19, align 8
  %20 = load ptr, ptr %8, align 8
  %21 = load ptr, ptr %13, align 8
  %22 = getelementptr inbounds nuw %struct.RBTree, ptr %21, i32 0, i32 2
  store ptr %20, ptr %22, align 8
  %23 = load ptr, ptr %9, align 8
  %24 = load ptr, ptr %13, align 8
  %25 = getelementptr inbounds nuw %struct.RBTree, ptr %24, i32 0, i32 3
  store ptr %23, ptr %25, align 8
  %26 = load ptr, ptr %10, align 8
  %27 = load ptr, ptr %13, align 8
  %28 = getelementptr inbounds nuw %struct.RBTree, ptr %27, i32 0, i32 4
  store ptr %26, ptr %28, align 8
  %29 = load ptr, ptr %11, align 8
  %30 = load ptr, ptr %13, align 8
  %31 = getelementptr inbounds nuw %struct.RBTree, ptr %30, i32 0, i32 5
  store ptr %29, ptr %31, align 8
  %32 = load ptr, ptr %12, align 8
  %33 = load ptr, ptr %13, align 8
  %34 = getelementptr inbounds nuw %struct.RBTree, ptr %33, i32 0, i32 6
  store ptr %32, ptr %34, align 8
  %35 = load ptr, ptr %13, align 8
  call void @llvm.lifetime.end.p0(i64 8, ptr %13) #6
  ret ptr %35
}