; Function Attrs: nounwind uwtable
define dso_local noundef ptr @rbt_create(i64 noundef %0, ptr noundef %1, ptr noundef %2, ptr noundef %3, ptr noundef %4, ptr noundef %5) local_unnamed_addr #0 {
  %7 = tail call ptr @palloc(i64 noundef 56) #7
  store ptr @sentinel, ptr %7, align 8
  %8 = getelementptr inbounds nuw i8, ptr %7, i64 8
  store i64 %0, ptr %8, align 8
  %9 = getelementptr inbounds nuw i8, ptr %7, i64 16
  store ptr %1, ptr %9, align 8
  %10 = getelementptr inbounds nuw i8, ptr %7, i64 24
  store ptr %2, ptr %10, align 8
  %11 = getelementptr inbounds nuw i8, ptr %7, i64 32
  store ptr %3, ptr %11, align 8
  %12 = getelementptr inbounds nuw i8, ptr %7, i64 40
  store ptr %4, ptr %12, align 8
  %13 = getelementptr inbounds nuw i8, ptr %7, i64 48
  store ptr %5, ptr %13, align 8
  ret ptr %7
}